; Function Attrs: mustprogress uwtable
define ptr @utrans_getUnicodeID_77(ptr noundef %0, ptr noundef writeonly %1) local_unnamed_addr #4 {
  %3 = load ptr, ptr %0, align 8, !tbaa !3
  %4 = getelementptr inbounds nuw i8, ptr %3, i64 104
  %5 = load ptr, ptr %4, align 8
  %6 = tail call noundef nonnull align 8 dereferenceable(64) ptr %5(ptr noundef nonnull align 8 dereferenceable(84) %0)
  %.not = icmp eq ptr %1, null
  br i1 %.not, label %16, label %7

7:                                                ; preds = %2
  %8 = getelementptr inbounds nuw i8, ptr %6, i64 8
  %9 = load i16, ptr %8, align 8, !tbaa !20
  %10 = icmp slt i16 %9, 0
  %11 = ashr i16 %9, 5
  %12 = sext i16 %11 to i32
  %13 = getelementptr inbounds nuw i8, ptr %6, i64 12
  %14 = load i32, ptr %13, align 4
  %15 = select i1 %10, i32 %14, i32 %12
  store i32 %15, ptr %1, align 4, !tbaa !29
  br label %16

16:                                               ; preds = %7, %2
  %17 = getelementptr inbounds nuw i8, ptr %6, i64 8
  %18 = load i16, ptr %17, align 8, !tbaa !20
  %19 = and i16 %18, 17
  %.not.i = icmp eq i16 %19, 0
  br i1 %.not.i, label %20, label %_ZNK6icu_7713UnicodeString9getBufferEv.exit

20:                                               ; preds = %16
  %21 = and i16 %18, 2
  %.not2.i = icmp eq i16 %21, 0
  br i1 %.not2.i, label %24, label %22

22:                                               ; preds = %20
  %23 = getelementptr inbounds nuw i8, ptr %6, i64 10
  br label %_ZNK6icu_7713UnicodeString9getBufferEv.exit

24:                                               ; preds = %20
  %25 = getelementptr inbounds nuw i8, ptr %6, i64 24
  %26 = load ptr, ptr %25, align 8, !tbaa !20
  br label %_ZNK6icu_7713UnicodeString9getBufferEv.exit

_ZNK6icu_7713UnicodeString9getBufferEv.exit:      ; preds = %16, %22, %24
  %.0.i = phi ptr [ %23, %22 ], [ %26, %24 ], [ null, %16 ]
  ret ptr %.0.i
}